; Function Attrs: nounwind uwtable
define void @glfwMakeContextCurrent(ptr noundef %0) local_unnamed_addr #0 {
  %2 = load i32, ptr @_glfw, align 8, !tbaa !78
  %.not = icmp eq i32 %2, 0
  br i1 %.not, label %3, label %4

3:                                                ; preds = %1
  tail call void (i32, ptr, ...) @_glfwInputError(i32 noundef 65537, ptr noundef null) #7
  br label %.thread18

4:                                                ; preds = %1
  %5 = tail call ptr @_glfwPlatformGetTls(ptr noundef nonnull getelementptr inbounds nuw (i8, ptr @_glfw, i64 133412)) #7
  %.not12 = icmp eq ptr %0, null
  br i1 %.not12, label %11, label %6

6:                                                ; preds = %4
  %7 = getelementptr inbounds nuw i8, ptr %0, i64 528
  %8 = load i32, ptr %7, align 8, !tbaa !13
  %9 = icmp eq i32 %8, 0
  br i1 %9, label %10, label %.thread

10:                                               ; preds = %6
  tail call void (i32, ptr, ...) @_glfwInputError(i32 noundef 65546, ptr noundef nonnull @.str.30) #7
  br label %.thread18

11:                                               ; preds = %4
  %.not13 = icmp eq ptr %5, null
  br i1 %.not13, label %.thread18, label %.thread19

.thread19:                                        ; preds = %11
  %12 = getelementptr inbounds nuw i8, ptr %5, i64 600
  %13 = load ptr, ptr %12, align 8, !tbaa !152
  tail call void %13(ptr noundef null) #7
  br label %.thread18

.thread:                                          ; preds = %6
  %.not1315 = icmp eq ptr %5, null
  br i1 %.not1315, label %.thread17, label %14

14:                                               ; preds = %.thread
  %15 = getelementptr inbounds nuw i8, ptr %0, i64 532
  %16 = load i32, ptr %15, align 4, !tbaa !55
  %17 = getelementptr inbounds nuw i8, ptr %5, i64 532
  %18 = load i32, ptr %17, align 4, !tbaa !55
  %.not14 = icmp eq i32 %16, %18
  br i1 %.not14, label %.thread17, label %19

19:                                               ; preds = %14
  %20 = getelementptr inbounds nuw i8, ptr %5, i64 600
  %21 = load ptr, ptr %20, align 8, !tbaa !152
  tail call void %21(ptr noundef null) #7
  br label %.thread17

.thread17:                                        ; preds = %19, %14, %.thread
  %22 = getelementptr inbounds nuw i8, ptr %0, i64 600
  %23 = load ptr, ptr %22, align 8, !tbaa !152
  tail call void %23(ptr noundef nonnull %0) #7
  br label %.thread18

.thread18:                                        ; preds = %11, %.thread19, %.thread17, %10, %3
  ret void
}